target datalayout = "e-m:e-p270:32:32-p271:32:32-p272:64:64-i64:64-i128:128-f80:128-n8:16:32:64-S128"
target triple = "x86_64-pc-linux-gnu"

%struct._apply_styles_data_t = type { ptr, ptr, i32 }

@.str.43 = private unnamed_addr constant [31 x i8] c"no images nor styles selected!\00", align 1
@.str.44 = private unnamed_addr constant [20 x i8] c"no styles selected!\00", align 1
@.str.45 = private unnamed_addr constant [20 x i8] c"no images selected!\00", align 1
@.str.46 = private unnamed_addr constant [15 x i8] c"apply style(s)\00", align 1

; Function Attrs: nounwind uwtable
define void @dt_control_apply_styles(ptr noundef %0, ptr noundef %1, i32 noundef %2) #0 {
  %4 = alloca ptr, align 8
  %5 = alloca ptr, align 8
  %6 = alloca i32, align 4
  %7 = alloca ptr, align 8
  store ptr %0, ptr %4, align 8, !tbaa !60
  store ptr %1, ptr %5, align 8, !tbaa !60
  store i32 %2, ptr %6, align 4, !tbaa !50
  %8 = load ptr, ptr %5, align 8, !tbaa !60
  %9 = icmp ne ptr %8, null
  br i1 %9, label %15, label %10

10:                                               ; preds = %3
  %11 = load ptr, ptr %4, align 8, !tbaa !60
  %12 = icmp ne ptr %11, null
  br i1 %12, label %15, label %13

13:                                               ; preds = %10
  %14 = call ptr @dcgettext(ptr noundef null, ptr noundef @.str.43, i32 noundef 5) #14
  call void (ptr, ...) @dt_control_log(ptr noundef %14)
  br label %44

15:                                               ; preds = %10, %3
  %16 = load ptr, ptr %5, align 8, !tbaa !60
  %17 = icmp ne ptr %16, null
  br i1 %17, label %20, label %18

18:                                               ; preds = %15
  %19 = call ptr @dcgettext(ptr noundef null, ptr noundef @.str.44, i32 noundef 5) #14
  call void (ptr, ...) @dt_control_log(ptr noundef %19)
  br label %44

20:                                               ; preds = %15
  %21 = load ptr, ptr %4, align 8, !tbaa !60
  %22 = icmp ne ptr %21, null
  br i1 %22, label %25, label %23

23:                                               ; preds = %20
  %24 = call ptr @dcgettext(ptr noundef null, ptr noundef @.str.45, i32 noundef 5) #14
  call void (ptr, ...) @dt_control_log(ptr noundef %24)
  br label %44

25:                                               ; preds = %20
  br label %26

26:                                               ; preds = %25
  br label %27

27:                                               ; preds = %26
  call void @llvm.lifetime.start.p0(i64 8, ptr %7) #14
  %28 = call noalias ptr @g_malloc(i64 noundef 24) #17
  store ptr %28, ptr %7, align 8, !tbaa !141
  %29 = load ptr, ptr %7, align 8, !tbaa !141
  %30 = icmp ne ptr %29, null
  br i1 %30, label %31, label %43

31:                                               ; preds = %27
  %32 = load ptr, ptr %4, align 8, !tbaa !60
  %33 = load ptr, ptr %7, align 8, !tbaa !141
  %34 = getelementptr inbounds nuw %struct._apply_styles_data_t, ptr %33, i32 0, i32 0
  store ptr %32, ptr %34, align 8, !tbaa !161
  %35 = load ptr, ptr %5, align 8, !tbaa !60
  %36 = load ptr, ptr %7, align 8, !tbaa !141
  %37 = getelementptr inbounds nuw %struct._apply_styles_data_t, ptr %36, i32 0, i32 1
  store ptr %35, ptr %37, align 8, !tbaa !163
  %38 = load i32, ptr %6, align 4, !tbaa !50
  %39 = load ptr, ptr %7, align 8, !tbaa !141
  %40 = getelementptr inbounds nuw %struct._apply_styles_data_t, ptr %39, i32 0, i32 2
  store i32 %38, ptr %40, align 8, !tbaa !164
  %41 = load ptr, ptr %4, align 8, !tbaa !60
  %42 = load ptr, ptr %7, align 8, !tbaa !141
  call void @_add_history_job(ptr noundef %41, ptr noundef @.str.46, ptr noundef @_control_apply_styles_job_run, ptr noundef %42)
  br label %43

43:                                               ; preds = %31, %27
  call void @llvm.lifetime.end.p0(i64 8, ptr %7) #14
  br label %44

44:                                               ; preds = %43, %23, %18, %13
  ret void
}