; Function Attrs: nounwind uwtable
define void @dt_control_apply_styles(ptr noundef %0, ptr noundef %1, i32 noundef %2) local_unnamed_addr #0 {
  %4 = icmp ne ptr %1, null
  %5 = icmp ne ptr %0, null
  %or.cond = or i1 %5, %4
  br i1 %or.cond, label %8, label %6

6:                                                ; preds = %3
  %7 = tail call ptr @dcgettext(ptr noundef null, ptr noundef nonnull @.str.43, i32 noundef 5) #17
  tail call void (ptr, ...) @dt_control_log(ptr noundef %7) #17
  br label %19

8:                                                ; preds = %3
  br i1 %4, label %11, label %9

9:                                                ; preds = %8
  %10 = tail call ptr @dcgettext(ptr noundef null, ptr noundef nonnull @.str.44, i32 noundef 5) #17
  tail call void (ptr, ...) @dt_control_log(ptr noundef %10) #17
  br label %19

11:                                               ; preds = %8
  br i1 %5, label %14, label %12

12:                                               ; preds = %11
  %13 = tail call ptr @dcgettext(ptr noundef null, ptr noundef nonnull @.str.45, i32 noundef 5) #17
  tail call void (ptr, ...) @dt_control_log(ptr noundef %13) #17
  br label %19

14:                                               ; preds = %11
  %15 = tail call noalias dereferenceable_or_null(24) ptr @g_malloc(i64 noundef 24) #22
  %.not = icmp eq ptr %15, null
  br i1 %.not, label %19, label %16

16:                                               ; preds = %14
  store ptr %0, ptr %15, align 8, !tbaa !147
  %17 = getelementptr inbounds nuw i8, ptr %15, i64 8
  store ptr %1, ptr %17, align 8, !tbaa !149
  %18 = getelementptr inbounds nuw i8, ptr %15, i64 16
  store i32 %2, ptr %18, align 8, !tbaa !150
  tail call fastcc void @_add_history_job(ptr noundef nonnull %0, ptr noundef nonnull @.str.46, ptr noundef nonnull @_control_apply_styles_job_run, ptr noundef nonnull %15)
  br label %19

19:                                               ; preds = %14, %16, %12, %9, %6
  ret void
}